ccopy_reg
_reconstructor
p0
(cargparse
Namespace
p1
c__builtin__
object
p2
Ntp3
Rp4
(dp5
S'bSkipLambdaIndex'
p6
S''
p7
sS'methods'
p8
(lp9
S'TI'
p10
aS'TI-CUBIC'
p11
asS'prefix'
p12
S'actual_grad_'
p13
sS'uncorr'
p14
S'dhdl'
p15
sS'verbose'
p16
I00
sS'lv_names'
p17
(lp18
g7
asS'temperature'
p19
F298.0
sS'ddFs'
p20
(lp21
(dp22
g11
cnumpy.core.multiarray
scalar
p23
(cnumpy
dtype
p24
(S'f8'
p25
I0
I1
tp26
Rp27
(I3
S'<'
p28
NNNI-1
I-1
I0
tp29
bS'\x00\x00\x00\x00\x00\x00\x00\x00'
p30
tp31
Rp32
sg10
g23
(g27
S'\x00\x00\x00\x00\x00\x00\x00\x00'
p33
tp34
Rp35
sa(dp36
g11
g23
(g27
S'o\xbd\xfa\x91/\xd1r?'
p37
tp38
Rp39
sg10
g23
(g27
S'G\xe1\x0eL\xad\x8cq?'
p40
tp41
Rp42
sa(dp43
g11
g23
(g27
S'o\xbd\xfa\x91/\xd1r?'
p44
tp45
Rp46
sg10
g23
(g27
S'G\xe1\x0eL\xad\x8cq?'
p47
tp48
Rp49
sasS'overlap'
p50
I00
sS'units'
p51
S'(kJ/mol)'
p52
sS'df_allk'
p53
cnumpy.core.multiarray
_reconstruct
p54
(cnumpy
ndarray
p55
(I0
tp56
S'b'
p57
tp58
Rp59
(I1
(I15
tp60
g24
(S'O4'
p61
I0
I1
tp62
Rp63
(I3
S'|'
p64
NNNI-1
I-1
I63
tp65
bI00
(lp66
(dp67
S'TI-CUBIC'
p68
g23
(g27
S'\xda\xb2\x11/\xf5\x1a\x96?'
p69
tp70
Rp71
sg10
g23
(g27
S'\xce\xf9\xd3\xd0\xec\xe9\x95?'
p72
tp73
Rp74
sa(dp75
g68
g23
(g27
S'\xc0z\xc3\x8f\x13\x0e\x9b?'
p76
tp77
Rp78
sg10
g23
(g27
S'\xb94\xf6L\xa9\xdf\x9a?'
p79
tp80
Rp81
sa(dp82
g68
g23
(g27
S'E\x8a\\c\xfaQ\xa1?'
p83
tp84
Rp85
sg10
g23
(g27
S'.~\xb3DY\x86\xa1?'
p86
tp87
Rp88
sa(dp89
g68
g23
(g27
S"\x8e6I\xde'\xdb\xa5?"
p90
tp91
Rp92
sg10
g23
(g27
S'\x9f\x19p\xde\x0e\xc4\xa5?'
p93
tp94
Rp95
sa(dp96
g68
g23
(g27
S'\x92X\xae\xba\r(\xa9?'
p97
tp98
Rp99
sg10
g23
(g27
S'\xac\xedB\xcc%\x16\xa9?'
p100
tp101
Rp102
sa(dp103
g68
g23
(g27
S'c\x8f60}?\xbb?'
p104
tp105
Rp106
sg10
g23
(g27
S']\xf0P6\x04b\xbb?'
p107
tp108
Rp109
sa(dp110
g68
g23
(g27
S'<\x8c?r4\xdc\xbb?'
p111
tp112
Rp113
sg10
g23
(g27
S'\xac\xcc\x81\x9d[\xd4\xbb?'
p114
tp115
Rp116
sa(dp117
g68
g23
(g27
S'$^\xa9\xe3\xd1L\xb9?'
p118
tp119
Rp120
sg10
g23
(g27
S'\xad\x01\xf51\x10k\xb9?'
p121
tp122
Rp123
sa(dp124
g68
g23
(g27
S'\xe0S$\xf4\xab\xa8\xa6?'
p125
tp126
Rp127
sg10
g23
(g27
S'\x83\xf1\xc3\x8e\xbd\xd9\xa6?'
p128
tp129
Rp130
sa(dp131
g68
g23
(g27
S'\xd8B\xc4\xd3\xacf\xa6?'
p132
tp133
Rp134
sg10
g23
(g27
S'jC]\xfb+\x89\xa6?'
p135
tp136
Rp137
sa(dp138
g68
g23
(g27
S'"Qo"\x96A\xb7?'
p139
tp140
Rp141
sg10
g23
(g27
S'7U5\xce\x8f\xa5\xb8?'
p142
tp143
Rp144
sa(dp145
g68
g23
(g27
S'9\n\x81\xe3E2\xa9?'
p146
tp147
Rp148
sg10
g23
(g27
S'\xa6l\x00k\xffO\xa9?'
p149
tp150
Rp151
sa(dp152
g68
g23
(g27
S'\xd2\xdd\xb4\x7f\xb8\x11\xa7?'
p153
tp154
Rp155
sg10
g23
(g27
S'\x8b\xc7 \x88\x0b@\xa7?'
p156
tp157
Rp158
sa(dp159
g68
g23
(g27
S'\x92\xd3r\xb0I\xcb\xa0?'
p160
tp161
Rp162
sg10
g23
(g27
S'%@\xd7\x87;\xd4\xa0?'
p163
tp164
Rp165
sa(dp166
g68
g23
(g27
S'6\x18\xa5i\x1d"\x89?'
p167
tp168
Rp169
sg10
g23
(g27
S'v\xc3{\x9a\xca!\x89?'
p170
tp171
Rp172
satp173
bsS'breakdown'
p174
I01
sS'datafile_directory'
p175
S'/home/hhl/projects/aa_branches/refactor/samples/sire'
p176
sS'bIgnoreWL'
p177
I00
sS'init_with'
p178
S'BAR'
p179
sS'dFs'
p180
(lp181
(dp182
g11
I0
sg10
I0
sa(dp183
g11
I0
sg10
I0
sa(dp184
g11
g23
(g27
S'\xe7m-\xfeP\xca\xe9?'
p185
tp186
Rp187
sg10
g23
(g27
S'\xec\xe5\x1f\xb5/\x06\xea?'
p188
tp189
Rp190
sasS'output_directory'
p191
S'.'
p192
sS'beta'
p193
F0.40359852979970584
sS'ddf_allk'
p194
g54
(g55
(I0
tp195
g57
tp196
Rp197
(I1
(I15
tp198
g63
I00
(lp199
(dp200
g68
g23
(g27
S'\x81q\x0c\xa6-U.?'
p201
tp202
Rp203
sg10
g23
(g27
S'\x94\x98\\\x97\xad\x13,?'
p204
tp205
Rp206
sa(dp207
g68
g23
(g27
S'\xd8\xcbB\x18\xe2\x194?'
p208
tp209
Rp210
sg10
g23
(g27
S'\x96\xafL\x8b\xf2\x122?'
p211
tp212
Rp213
sa(dp214
g68
g23
(g27
S'*Z5\x17\x08\x8b=?'
p215
tp216
Rp217
sg10
g23
(g27
S'\xc5\xc6\x96\x11@\xf68?'
p218
tp219
Rp220
sa(dp221
g68
g23
(g27
S'\xf6\x0b&\xd1\x0eYB?'
p222
tp223
Rp224
sg10
g23
(g27
S'\x86\x06\xb1\x0f%\x9d??'
p225
tp226
Rp227
sa(dp228
g68
g23
(g27
S'\x10\xfa\xd4\x8b\r\x1eF?'
p229
tp230
Rp231
sg10
g23
(g27
S'\xe5I2\x8d\xa4tC?'
p232
tp233
Rp234
sa(dp235
g68
g23
(g27
S'\x98\x01\x90\x18\xebJ_?'
p236
tp237
Rp238
sg10
g23
(g27
S'0\xfa\x9d\xb9\x97\xa8V?'
p239
tp240
Rp241
sa(dp242
g68
g23
(g27
S'\xf5\x94\x01\x1c\xa54]?'
p243
tp244
Rp245
sg10
g23
(g27
S'\xae\xcc?\xd5\xd3;X?'
p246
tp247
Rp248
sa(dp249
g68
g23
(g27
S'e\xae\xa2#\xb9\xa8^?'
p250
tp251
Rp252
sg10
g23
(g27
S'\x83\x9d\xe7\x13\x8fCW?'
p253
tp254
Rp255
sa(dp256
g68
g23
(g27
S'/\xbc\xc8\x18\xe0\x95F?'
p257
tp258
Rp259
sg10
g23
(g27
S'\x89\x8cGx\xde\x80D?'
p260
tp261
Rp262
sa(dp263
g68
g23
(g27
S'\xda\xed&\x11\xe2<E?'
p264
tp265
Rp266
sg10
g23
(g27
S'\x95Z\xc0\x10h+C?'
p267
tp268
Rp269
sa(dp270
g68
g23
(g27
S'\x91\x89*\xd7\xac9`?'
p271
tp272
Rp273
sg10
g23
(g27
S'\xa5T\xb4\x93\xd4rS?'
p274
tp275
Rp276
sa(dp277
g68
g23
(g27
S'}3OAw\x06F?'
p278
tp279
Rp280
sg10
g23
(g27
S'\xa0\xf4\xeeI\xcb<A?'
p281
tp282
Rp283
sa(dp284
g68
g23
(g27
S'\xc9\xa6\n\xe8#\x99E?'
p285
tp286
Rp287
sg10
g23
(g27
S'\x12)\x0f\xa9<\x02@?'
p288
tp289
Rp290
sa(dp291
g68
g23
(g27
S'\x10\xa9\x0cc(\xe2<?'
p292
tp293
Rp294
sg10
g23
(g27
S't|U|X\xbb5?'
p295
tp296
Rp297
sa(dp298
g68
g23
(g27
S'\t\xc6\xb0\x03\xf8\x9f\x1d?'
p299
tp300
Rp301
sg10
g23
(g27
S'Vt\xd9&\xba/\x1d?'
p302
tp303
Rp304
satp305
bsS'uncorr_threshold'
p306
I50
sS'beta_report'
p307
F0.09646236371885894
sS'relative_tolerance'
p308
F1e-10
sS'bForwrev'
p309
I0
sS'bCFM'
p310
I00
sS'suffix'
p311
S'dat'
p312
sS'equiltime'
p313
F0.0
sS'decimal'
p314
I5
sS'software'
p315
S'sire'
p316
sb.