ccopy_reg
_reconstructor
p0
(cargparse
Namespace
p1
c__builtin__
object
p2
Ntp3
Rp4
(dp5
S'bSkipLambdaIndex'
p6
S''
p7
sS'methods'
p8
(lp9
S'BAR'
p10
asS'prefix'
p11
S'gibbs'
p12
sS'uncorr'
p13
S'dhdl'
p14
sS'verbose'
p15
I00
sS'lv_names'
p16
(tsS'temperature'
p17
F298.0
sS'ddFs'
p18
(lp19
(dp20
g10
cnumpy.core.multiarray
scalar
p21
(cnumpy
dtype
p22
(S'f8'
p23
I0
I1
tp24
Rp25
(I3
S'<'
p26
NNNI-1
I-1
I0
tp27
bS'\x00\x00\x00\x00\x00\x00\x00\x00'
p28
tp29
Rp30
sa(dp31
g10
g21
(g25
S'\xdd=\t\x91,\xa3\xd0?'
p32
tp33
Rp34
sa(dp35
g10
g21
(g25
S'\xdd=\t\x91,\xa3\xd0?'
p36
tp37
Rp38
sasS'overlap'
p39
I00
sS'units'
p40
S'(kcal/mol)'
p41
sS'snap_size'
p42
(lp43
g21
(g25
S'\xb2\x9d\xef\xa7\xc6K\xf3?'
p44
tp45
Rp46
ag21
(g25
S'\xb2\x9d\xef\xa7\xc6K\xf3?'
p47
tp48
Rp49
ag21
(g25
S'\xb2\x9d\xef\xa7\xc6K\xf3?'
p50
tp51
Rp52
ag21
(g25
S'\xb2\x9d\xef\xa7\xc6K\xf3?'
p53
tp54
Rp55
ag21
(g25
S'\xb2\x9d\xef\xa7\xc6K\xf3?'
p56
tp57
Rp58
ag21
(g25
S'\xb2\x9d\xef\xa7\xc6K\xf3?'
p59
tp60
Rp61
ag21
(g25
S'\xb2\x9d\xef\xa7\xc6K\xf3?'
p62
tp63
Rp64
ag21
(g25
S'\xb2\x9d\xef\xa7\xc6K\xf3?'
p65
tp66
Rp67
ag21
(g25
S'\xb2\x9d\xef\xa7\xc6K\xf3?'
p68
tp69
Rp70
ag21
(g25
S'\xb2\x9d\xef\xa7\xc6K\xf3?'
p71
tp72
Rp73
ag21
(g25
S'\xb2\x9d\xef\xa7\xc6K\xf3?'
p74
tp75
Rp76
ag21
(g25
S'\xb2\x9d\xef\xa7\xc6K\xf3?'
p77
tp78
Rp79
asS'df_allk'
p80
cnumpy.core.multiarray
_reconstruct
p81
(cnumpy
ndarray
p82
(I0
tp83
S'b'
p84
tp85
Rp86
(I1
(I11
tp87
g22
(S'O4'
p88
I0
I1
tp89
Rp90
(I3
S'|'
p91
NNNI-1
I-1
I63
tp92
bI00
(lp93
(dp94
g10
g21
(g25
S'e\x8e\xc6XGJI@'
p95
tp96
Rp97
sa(dp98
g10
g21
(g25
S'\xdf\xf6a\x15\xaa\xe1F@'
p99
tp100
Rp101
sa(dp102
g10
g21
(g25
S'p\x19\xb24\xc0\xe7C@'
p103
tp104
Rp105
sa(dp106
g10
g21
(g25
S'\x171\x16\x1d\x0b\x95B@'
p107
tp108
Rp109
sa(dp110
g10
g21
(g25
S'\xe9\x98\x8b\xca_1B@'
p111
tp112
Rp113
sa(dp114
g10
g21
(g25
S'#\xc9\xb84\xb6\xfa\x13@'
p115
tp116
Rp117
sa(dp118
g10
g21
(g25
S'\xfe\xd5\xc3\xc8\xbc\x12@\xc0'
p119
tp120
Rp121
sa(dp122
g10
g21
(g25
S'\x13\xfb$\xc9\xa7KB\xc0'
p123
tp124
Rp125
sa(dp126
g10
g21
(g25
S'&u\x1d\x0e\xf5,D\xc0'
p127
tp128
Rp129
sa(dp130
g10
g21
(g25
S'\x05\xb3\x1e]b\xf9F\xc0'
p131
tp132
Rp133
sa(dp134
g10
g21
(g25
S'\x16\xd1D4`\\I\xc0'
p135
tp136
Rp137
satp138
bsS'breakdown'
p139
I01
sS'datafile_directory'
p140
S'/home/hhl/projects/aa_branches/refactor/samples/desmond'
p141
sS'bIgnoreWL'
p142
I00
sS'init_with'
p143
g10
sS'dFs'
p144
(lp145
(dp146
g10
I0
sa(dp147
g10
I0
sa(dp148
g10
g21
(g25
S'\x0c\xde\xa6~\\\xe1!@'
p149
tp150
Rp151
sasS'output_directory'
p152
S'.'
p153
sS'beta'
p154
F0.40359852979970584
sS'ddf_allk'
p155
g81
(g82
(I0
tp156
g84
tp157
Rp158
(I1
(I11
tp159
g90
I00
(lp160
(dp161
g10
g21
(g25
S'G\xc04@\x99y\xb5?'
p162
tp163
Rp164
sa(dp165
g10
g21
(g25
S'\xd5\x13,\x8f\x7f\xdf\xaf?'
p166
tp167
Rp168
sa(dp169
g10
g21
(g25
S'\x00i~Q\xcd\xce\xa2?'
p170
tp171
Rp172
sa(dp173
g10
g21
(g25
S'\xb4\x96\\G\xcb\xf6\xaa?'
p174
tp175
Rp176
sa(dp177
g10
g21
(g25
S'Z\xf2\x03|/\xb3\xbd?'
p178
tp179
Rp180
sa(dp181
g10
g21
(g25
S'\xec\xab\x0c \xf7\xa1\xc6?'
p182
tp183
Rp184
sa(dp185
g10
g21
(g25
S'\x8e8\xef\xf9\xde\xc8\xb2?'
p186
tp187
Rp188
sa(dp189
g10
g21
(g25
S'\x935\xe6S\xc4\xb2\x96?'
p190
tp191
Rp192
sa(dp193
g10
g21
(g25
S'ar\x0e\xddd%\x98?'
p194
tp195
Rp196
sa(dp197
g10
g21
(g25
S'\xc6\xfd\x9f\xb4\xc3\xcd\x99?'
p198
tp199
Rp200
sa(dp201
g10
g21
(g25
S'O/\x1e\xbd1\x19\x9c?'
p202
tp203
Rp204
satp205
bsS'uncorr_threshold'
p206
I50
sS'beta_report'
p207
F1.6886562486819694
sS'relative_tolerance'
p208
F1e-10
sS'bForwrev'
p209
I0
sS'bCFM'
p210
I00
sS'suffix'
p211
S'dE'
p212
sS'equiltime'
p213
F0.0
sS'decimal'
p214
I5
sS'software'
p215
S'desmond'
p216
sb.