(ioptparse
Values
p0
(dp1
S'bSkipLambdaIndex'
p2
S''
p3
sS'methods'
p4
(lp5
S'BAR'
p6
asS'prefix'
p7
S'gibbs'
p8
sS'uncorr'
p9
S'dhdl'
p10
sS'suffix'
p11
S'dE'
p12
sS'lv_names'
p13
(tsS'verbose'
p14
I00
sS'temperature'
p15
I298
sS'ddFs'
p16
(lp17
(dp18
g6
cnumpy.core.multiarray
scalar
p19
(cnumpy
dtype
p20
(S'f8'
p21
I0
I1
tp22
Rp23
(I3
S'<'
p24
NNNI-1
I-1
I0
tp25
bS'\x00\x00\x00\x00\x00\x00\x00\x00'
p26
tp27
Rp28
sa(dp29
g6
g19
(g23
S'\xde=\t\x91,\xa3\xd0?'
p30
tp31
Rp32
sa(dp33
g6
g19
(g23
S'\xde=\t\x91,\xa3\xd0?'
p34
tp35
Rp36
sasS'overlap'
p37
I00
sS'units'
p38
S'(kcal/mol)'
p39
sS'snap_size'
p40
(lp41
g19
(g23
S'\xb2\x9d\xef\xa7\xc6K\xf3?'
p42
tp43
Rp44
ag19
(g23
S'\xb2\x9d\xef\xa7\xc6K\xf3?'
p45
tp46
Rp47
ag19
(g23
S'\xb2\x9d\xef\xa7\xc6K\xf3?'
p48
tp49
Rp50
ag19
(g23
S'\xb2\x9d\xef\xa7\xc6K\xf3?'
p51
tp52
Rp53
ag19
(g23
S'\xb2\x9d\xef\xa7\xc6K\xf3?'
p54
tp55
Rp56
ag19
(g23
S'\xb2\x9d\xef\xa7\xc6K\xf3?'
p57
tp58
Rp59
ag19
(g23
S'\xb2\x9d\xef\xa7\xc6K\xf3?'
p60
tp61
Rp62
ag19
(g23
S'\xb2\x9d\xef\xa7\xc6K\xf3?'
p63
tp64
Rp65
ag19
(g23
S'\xb2\x9d\xef\xa7\xc6K\xf3?'
p66
tp67
Rp68
ag19
(g23
S'\xb2\x9d\xef\xa7\xc6K\xf3?'
p69
tp70
Rp71
ag19
(g23
S'\xb2\x9d\xef\xa7\xc6K\xf3?'
p72
tp73
Rp74
ag19
(g23
S'\xb2\x9d\xef\xa7\xc6K\xf3?'
p75
tp76
Rp77
asS'df_allk'
p78
cnumpy.core.multiarray
_reconstruct
p79
(cnumpy
ndarray
p80
(I0
tp81
S'b'
p82
tp83
Rp84
(I1
(I11
tp85
g20
(S'O8'
p86
I0
I1
tp87
Rp88
(I3
S'|'
p89
NNNI-1
I-1
I63
tp90
bI00
(lp91
(dp92
g6
g19
(g23
S'g\x8e\xc6XGJI@'
p93
tp94
Rp95
sa(dp96
g6
g19
(g23
S'\xe1\xf6a\x15\xaa\xe1F@'
p97
tp98
Rp99
sa(dp100
g6
g19
(g23
S'q\x19\xb24\xc0\xe7C@'
p101
tp102
Rp103
sa(dp104
g6
g19
(g23
S'\x181\x16\x1d\x0b\x95B@'
p105
tp106
Rp107
sa(dp108
g6
g19
(g23
S'\xeb\x98\x8b\xca_1B@'
p109
tp110
Rp111
sa(dp112
g6
g19
(g23
S'%\xc9\xb84\xb6\xfa\x13@'
p113
tp114
Rp115
sa(dp116
g6
g19
(g23
S'\xff\xd5\xc3\xc8\xbc\x12@\xc0'
p117
tp118
Rp119
sa(dp120
g6
g19
(g23
S'\x15\xfb$\xc9\xa7KB\xc0'
p121
tp122
Rp123
sa(dp124
g6
g19
(g23
S'(u\x1d\x0e\xf5,D\xc0'
p125
tp126
Rp127
sa(dp128
g6
g19
(g23
S'\x07\xb3\x1e]b\xf9F\xc0'
p129
tp130
Rp131
sa(dp132
g6
g19
(g23
S'\x18\xd1D4`\\I\xc0'
p133
tp134
Rp135
satp136
bsS'breakdown'
p137
I00
sS'datafile_directory'
p138
S'/Users/nathanlim/Documents/alchemical-analysis/samples/desmond'
p139
sS'bIgnoreWL'
p140
I00
sS'init_with'
p141
g6
sS'dFs'
p142
(lp143
(dp144
g6
I0
sa(dp145
g6
I0
sa(dp146
g6
g19
(g23
S'\x14\xde\xa6~\\\xe1!@'
p147
tp148
Rp149
sasS'output_directory'
p150
S'.'
p151
sS'beta'
p152
F0.40359852979970595
sS'ddf_allk'
p153
g79
(g80
(I0
tp154
g82
tp155
Rp156
(I1
(I11
tp157
g88
I00
(lp158
(dp159
g6
g19
(g23
S'J\xc04@\x99y\xb5?'
p160
tp161
Rp162
sa(dp163
g6
g19
(g23
S'\xdd\x13,\x8f\x7f\xdf\xaf?'
p164
tp165
Rp166
sa(dp167
g6
g19
(g23
S'\x0ci~Q\xcd\xce\xa2?'
p168
tp169
Rp170
sa(dp171
g6
g19
(g23
S'\xb6\x96\\G\xcb\xf6\xaa?'
p172
tp173
Rp174
sa(dp175
g6
g19
(g23
S'[\xf2\x03|/\xb3\xbd?'
p176
tp177
Rp178
sa(dp179
g6
g19
(g23
S'\xed\xab\x0c \xf7\xa1\xc6?'
p180
tp181
Rp182
sa(dp183
g6
g19
(g23
S'\x908\xef\xf9\xde\xc8\xb2?'
p184
tp185
Rp186
sa(dp187
g6
g19
(g23
S'r5\xe6S\xc4\xb2\x96?'
p188
tp189
Rp190
sa(dp191
g6
g19
(g23
S'fr\x0e\xddd%\x98?'
p192
tp193
Rp194
sa(dp195
g6
g19
(g23
S'\xc0\xfd\x9f\xb4\xc3\xcd\x99?'
p196
tp197
Rp198
sa(dp199
g6
g19
(g23
S'J/\x1e\xbd1\x19\x9c?'
p200
tp201
Rp202
satp203
bsS'when_analyzed'
p204
S'Wed Nov 18 18:32:42 2015'
p205
sS'uncorr_threshold'
p206
I50
sS'beta_report'
p207
F1.6886562486819698
sS'decimal'
p208
I3
sS'bForwrev'
p209
I0
sS'bCFM'
p210
I00
sS'equiltime'
p211
I0
sS'relative_tolerance'
p212
F1e-10
sS'software'
p213
S'Desmond'
p214
sb.