(ioptparse
Values
p0
(dp1
S'bSkipLambdaIndex'
p2
S''
p3
sS'methods'
p4
(lp5
S'MBAR'
p6
asS'prefix'
p7
S'dhdl'
p8
sS'uncorr'
p9
g8
sS'suffix'
p10
S'xvg'
p11
sS'lv_names'
p12
(S'coul'
p13
S'vdw'
p14
tp15
sS'verbose'
p16
I00
sS'temperature'
p17
I298
sS'ddFs'
p18
(lp19
(dp20
g6
cnumpy.core.multiarray
scalar
p21
(cnumpy
dtype
p22
(S'f8'
p23
I0
I1
tp24
Rp25
(I3
S'<'
p26
NNNI-1
I-1
I0
tp27
bS's\xb7\x95\x9c\x84/\xc0?'
p28
tp29
Rp30
sa(dp31
g6
g21
(g25
S'\xca\x9c3\xe2\xd1\xec\xca?'
p32
tp33
Rp34
sa(dp35
g6
g21
(g25
S'\xc6\xc7[\x97^j\xcf?'
p36
tp37
Rp38
sasS'overlap'
p39
I00
sS'units'
p40
S'(kJ/mol)'
p41
sS'snap_size'
p42
(lp43
g21
(g25
S'\x00\x00\x00\x00\x00\x00\xf0?'
p44
tp45
Rp46
ag21
(g25
S'\x00\x00\x00\x00\x00\x00\xf0?'
p47
tp48
Rp49
ag21
(g25
S'\x00\x00\x00\x00\x00\x00\xf0?'
p50
tp51
Rp52
ag21
(g25
S'\x00\x00\x00\x00\x00\x00\xf0?'
p53
tp54
Rp55
ag21
(g25
S'\x00\x00\x00\x00\x00\x00\xf0?'
p56
tp57
Rp58
ag21
(g25
S'\x00\x00\x00\x00\x00\x00\xf0?'
p59
tp60
Rp61
ag21
(g25
S'\x00\x00\x00\x00\x00\x00\xf0?'
p62
tp63
Rp64
ag21
(g25
S'\x00\x00\x00\x00\x00\x00\xf0?'
p65
tp66
Rp67
ag21
(g25
S'\x00\x00\x00\x00\x00\x00\xf0?'
p68
tp69
Rp70
ag21
(g25
S'\x00\x00\x00\x00\x00\x00\xf0?'
p71
tp72
Rp73
ag21
(g25
S'\x00\x00\x00\x00\x00\x00\xf0?'
p74
tp75
Rp76
asS'df_allk'
p77
cnumpy.core.multiarray
_reconstruct
p78
(cnumpy
ndarray
p79
(I0
tp80
S'b'
p81
tp82
Rp83
(I1
(I10
tp84
g22
(S'O8'
p85
I0
I1
tp86
Rp87
(I3
S'|'
p88
NNNI-1
I-1
I63
tp89
bI00
(lp90
(dp91
S'MBAR'
p92
g21
(g25
S'\xe0\xdb>\xd8@S\x15@'
p93
tp94
Rp95
sa(dp96
g92
g21
(g25
S'\xd4\x07\xa9\xdcy\xf3\x15@'
p97
tp98
Rp99
sa(dp100
g92
g21
(g25
S'\xc8Y\xd3k\xeb\x9b\x13@'
p101
tp102
Rp103
sa(dp104
g92
g21
(g25
S'\xc8\x90W\xdd\xaf\xce\x00\xc0'
p105
tp106
Rp107
sa(dp108
g92
g21
(g25
S'\x00\x81\xcb2\x08\xb7\xf6?'
p109
tp110
Rp111
sa(dp112
g92
g21
(g25
S'\x80\x81\xc4\xf0\xbe>\xcd?'
p113
tp114
Rp115
sa(dp116
g92
g21
(g25
S'\x90\xb8\xce\xc7Ge\xf9\xbf'
p117
tp118
Rp119
sa(dp120
g92
g21
(g25
S'\xb0%4>\x85\xf1\x0b\xc0'
p121
tp122
Rp123
sa(dp124
g92
g21
(g25
S'\x80\xd3\x8e\x9bn\x99\xf4\xbf'
p125
tp126
Rp127
sa(dp128
g92
g21
(g25
S'\x80\xf0\x90\x8c\xd6M\xea\xbf'
p129
tp130
Rp131
satp132
bsS'breakdown'
p133
I00
sS'datafile_directory'
p134
S'/Users/nathanlim/Documents/alchemical-analysis/samples/gromacs/data/3-methylindole-11steps'
p135
sS'bIgnoreWL'
p136
I00
sS'init_with'
p137
S'BAR'
p138
sS'dFs'
p139
(lp140
(dp141
g6
g21
(g25
S'\xbe\x9e]\x10Sq/@'
p142
tp143
Rp144
sa(dp145
g6
g21
(g25
S'\x04X\xf6\xf3\xca\x91\x1e\xc0'
p146
tp147
Rp148
sa(dp149
g6
g21
(g25
S'\xbcrb\x96m( @'
p150
tp151
Rp152
sasS'output_directory'
p153
S'.'
p154
sS'beta'
p155
F0.40359852979970595
sS'ddf_allk'
p156
g78
(g79
(I0
tp157
g81
tp158
Rp159
(I1
(I10
tp160
g87
I00
(lp161
(dp162
g92
g21
(g25
S'\xb8\xd0\x97\xa4\xb1\\\xa5?'
p163
tp164
Rp165
sa(dp166
g92
g21
(g25
S'\x1aT\xe7\xa8\x08S\xab?'
p167
tp168
Rp169
sa(dp170
g92
g21
(g25
S'I\x8e}\xc7G\xc1\xb3?'
p171
tp172
Rp173
sa(dp174
g92
g21
(g25
S'\x8e\x1a\xf8\x15\xa4\xb6\xb7?'
p175
tp176
Rp177
sa(dp178
g92
g21
(g25
S'|\x11\xb4\x8b\x99\xd9\xb2?'
p179
tp180
Rp181
sa(dp182
g92
g21
(g25
S'\xe4t\x9e\x9dM\xa6\xb3?'
p183
tp184
Rp185
sa(dp186
g92
g21
(g25
S'\xd5\x95jC[\x11\xb4?'
p187
tp188
Rp189
sa(dp190
g92
g21
(g25
S'\x88\xa2\x06.\x8c\xe3\xb0?'
p191
tp192
Rp193
sa(dp194
g92
g21
(g25
S'\x08a.\xd2\x1e\x8d\x8c?'
p195
tp196
Rp197
sa(dp198
g92
g21
(g25
S'\x8ar\x1e\x84\x86\x92\x90?'
p199
tp200
Rp201
satp202
bsS'when_analyzed'
p203
S'Wed Nov 18 13:56:59 2015'
p204
sS'uncorr_threshold'
p205
I50
sS'beta_report'
p206
g21
(g25
S'\xcf\x04\x8d\xed\x8e\xd4\xd9?'
p207
tp208
Rp209
sS'decimal'
p210
I3
sS'bForwrev'
p211
I10
sS'bExpanded'
p212
I00
sS'bCFM'
p213
I00
sS'equiltime'
p214
I0
sS'relative_tolerance'
p215
F1e-10
sS'software'
p216
S'Gromacs'
p217
sb.